; Function Attrs: mustprogress nounwind uwtable
define hidden noundef zeroext i1 @_ZN14LibraryCallKit21inline_intpoly_assignEv(ptr noundef nonnull align 8 dereferenceable(108) %0) local_unnamed_addr #0 align 2 {
  %2 = load ptr, ptr @_ZN12StubRoutines15_intpoly_assignE, align 8
  %.not = icmp ne ptr %2, null
  br i1 %.not, label %3, label %39

3:                                                ; preds = %1
  %4 = getelementptr inbounds i8, ptr %0, i64 40
  %5 = load ptr, ptr %4, align 8
  %6 = getelementptr inbounds i8, ptr %5, i64 56
  %7 = load ptr, ptr %6, align 8
  %8 = getelementptr inbounds i8, ptr %7, i64 16
  %9 = load i32, ptr %8, align 8
  %10 = getelementptr inbounds i8, ptr %7, i64 32
  %11 = load i32, ptr %10, align 8
  %12 = add i32 %11, %9
  %13 = getelementptr inbounds i8, ptr %5, i64 8
  %14 = load ptr, ptr %13, align 8
  %15 = zext i32 %12 to i64
  %16 = getelementptr inbounds ptr, ptr %14, i64 %15
  %17 = load ptr, ptr %16, align 8
  %18 = add i32 %12, 1
  %19 = zext i32 %18 to i64
  %20 = getelementptr inbounds ptr, ptr %14, i64 %19
  %21 = load ptr, ptr %20, align 8
  %22 = add i32 %12, 2
  %23 = zext i32 %22 to i64
  %24 = getelementptr inbounds ptr, ptr %14, i64 %23
  %25 = load ptr, ptr %24, align 8
  %26 = tail call noundef ptr @_ZN8GraphKit17load_array_lengthEP4Node(ptr noundef nonnull align 8 dereferenceable(84) %0, ptr noundef %21) #13
  %27 = tail call noundef ptr @_ZN8GraphKit16must_be_not_nullEP4Nodeb(ptr noundef nonnull align 8 dereferenceable(84) %0, ptr noundef %21, i1 noundef zeroext true) #13
  %28 = tail call noundef ptr @_ZN8GraphKit16must_be_not_nullEP4Nodeb(ptr noundef nonnull align 8 dereferenceable(84) %0, ptr noundef %25, i1 noundef zeroext true) #13
  %29 = getelementptr inbounds i8, ptr %0, i64 32
  %30 = load ptr, ptr %29, align 8
  %31 = tail call noundef ptr @_ZN11PhaseValues6intconEi(ptr noundef nonnull align 8 dereferenceable(2400) %30, i32 noundef 0) #13
  %32 = tail call noundef ptr @_ZN8GraphKit21array_element_addressEP4NodeS1_9BasicTypePK7TypeIntS1_(ptr noundef nonnull align 8 dereferenceable(84) %0, ptr noundef %27, ptr noundef %31, i8 noundef zeroext 11, ptr noundef null, ptr noundef null) #13
  %33 = load ptr, ptr %29, align 8
  %34 = tail call noundef ptr @_ZN11PhaseValues6intconEi(ptr noundef nonnull align 8 dereferenceable(2400) %33, i32 noundef 0) #13
  %35 = tail call noundef ptr @_ZN8GraphKit21array_element_addressEP4NodeS1_9BasicTypePK7TypeIntS1_(ptr noundef nonnull align 8 dereferenceable(84) %0, ptr noundef %28, ptr noundef %34, i8 noundef zeroext 11, ptr noundef null, ptr noundef null) #13
  %36 = tail call noundef ptr @_ZN11OptoRuntime19intpoly_assign_TypeEv() #13
  %37 = load ptr, ptr @_ZN7TypePtr6BOTTOME, align 8
  %38 = tail call noundef ptr @_ZN8GraphKit17make_runtime_callEiPK8TypeFuncPhPKcPK7TypePtrP4NodeSA_SA_SA_SA_SA_SA_SA_(ptr noundef nonnull align 8 dereferenceable(84) %0, i32 noundef 1, ptr noundef %36, ptr noundef nonnull %2, ptr noundef nonnull @.str.106, ptr noundef %37, ptr noundef %17, ptr noundef %32, ptr noundef %35, ptr noundef %26, ptr noundef null, ptr noundef null, ptr noundef null, ptr noundef null) #13
  br label %39

39:                                               ; preds = %1, %3
  ret i1 %.not
}